; Function Attrs: mustprogress uwtable
define noundef ptr @_ZN6casadi10ConstantMX6createERKNS_8SparsityERKNSt7__cxx1112basic_stringIcSt11char_traitsIcESaIcEEE(ptr noundef nonnull align 8 dereferenceable(8) %0, ptr noundef nonnull align 8 dereferenceable(32) %1) local_unnamed_addr #3 align 2 personality ptr @__gxx_personality_v0 {
  %3 = tail call noundef i64 @_ZNK6casadi8Sparsity3nnzEv(ptr noundef nonnull align 8 dereferenceable(8) %0)
  %4 = icmp eq i64 %3, 0
  br i1 %4, label %5, label %7

5:                                                ; preds = %2
  %6 = tail call noundef ptr @_ZN6casadi10ConstantMX6createERKNS_8SparsityEx(ptr noundef nonnull align 8 dereferenceable(8) %0, i64 noundef 0)
  br label %11

7:                                                ; preds = %2
  %8 = tail call noalias noundef nonnull dereferenceable(120) ptr @_Znwm(i64 noundef 120) #29
  invoke void @_ZN6casadi12ConstantFileC1ERKNS_8SparsityERKNSt7__cxx1112basic_stringIcSt11char_traitsIcESaIcEEE(ptr noundef nonnull align 8 dereferenceable(120) %8, ptr noundef nonnull align 8 dereferenceable(8) %0, ptr noundef nonnull align 8 dereferenceable(32) %1)
          to label %11 unwind label %9

9:                                                ; preds = %7
  %10 = landingpad { ptr, i32 }
          cleanup
  tail call void @_ZdlPv(ptr noundef nonnull %8) #28
  resume { ptr, i32 } %10

11:                                               ; preds = %7, %5
  %.0 = phi ptr [ %6, %5 ], [ %8, %7 ]
  ret ptr %.0
}